; Function Attrs: mustprogress nofree norecurse nosync nounwind willreturn memory(argmem: readwrite) uwtable
define dso_local void @_ZN5vcpkg19ExtendedBuildResultC2ENS_11BuildResultEOSt6vectorINS_11FeatureSpecESaIS3_EE(ptr nocapture noundef nonnull writeonly align 8 dereferenceable(104) %0, i32 noundef %1, ptr nocapture noundef nonnull align 8 dereferenceable(24) %2) unnamed_addr #11 align 2 personality ptr @__gxx_personality_v0 {
  store i32 %1, ptr %0, align 8
  %4 = getelementptr inbounds i8, ptr %0, i64 8
  %5 = load ptr, ptr %2, align 8
  store ptr %5, ptr %4, align 8
  %6 = getelementptr inbounds i8, ptr %0, i64 16
  %7 = getelementptr inbounds i8, ptr %2, i64 8
  %8 = load ptr, ptr %7, align 8
  store ptr %8, ptr %6, align 8
  %9 = getelementptr inbounds i8, ptr %0, i64 24
  %10 = getelementptr inbounds i8, ptr %2, i64 16
  %11 = load ptr, ptr %10, align 8
  store ptr %11, ptr %9, align 8
  tail call void @llvm.memset.p0.i64(ptr noundef nonnull align 8 dereferenceable(24) %2, i8 0, i64 24, i1 false)
  %12 = getelementptr inbounds i8, ptr %0, i64 32
  store ptr null, ptr %12, align 8
  %13 = getelementptr inbounds i8, ptr %0, i64 40
  store i8 0, ptr %13, align 8
  %14 = getelementptr inbounds i8, ptr %0, i64 48
  store i8 0, ptr %14, align 8
  %15 = getelementptr inbounds i8, ptr %0, i64 80
  tail call void @llvm.memset.p0.i64(ptr noundef nonnull align 8 dereferenceable(24) %15, i8 0, i64 24, i1 false)
  ret void
}